target datalayout = "e-m:e-p270:32:32-p271:32:32-p272:64:64-i64:64-i128:128-f80:128-n8:16:32:64-S128"
target triple = "x86_64-pc-linux-gnu"

%struct.fsck_options = type { ptr, ptr, i32, i32, ptr, %struct.oidset, %struct.oidset, %struct.oidset, %struct.oidset, %struct.oidset, ptr }
%struct.oidset = type { %struct.kh_oid_set }
%struct.kh_oid_set = type { i32, i32, i32, i32, ptr, ptr, ptr }
%struct.object_id = type { [32 x i8], i32 }
%struct.kh_oid_map = type { i32, i32, i32, i32, ptr, ptr, ptr }

; Function Attrs: inlinehint nounwind uwtable
define internal i32 @oideq(ptr noundef %0, ptr noundef %1) #2 {
  %3 = alloca ptr, align 8
  %4 = alloca ptr, align 8
  store ptr %0, ptr %3, align 8, !tbaa !69
  store ptr %1, ptr %4, align 8, !tbaa !69
  %5 = load ptr, ptr %3, align 8, !tbaa !69
  %6 = getelementptr inbounds nuw %struct.object_id, ptr %5, i32 0, i32 0
  %7 = getelementptr inbounds [32 x i8], ptr %6, i64 0, i64 0
  %8 = load ptr, ptr %4, align 8, !tbaa !69
  %9 = getelementptr inbounds nuw %struct.object_id, ptr %8, i32 0, i32 0
  %10 = getelementptr inbounds [32 x i8], ptr %9, i64 0, i64 0
  %11 = call i32 @memcmp(ptr noundef %7, ptr noundef %10, i64 noundef 32) #12
  %12 = icmp ne i32 %11, 0
  %13 = xor i1 %12, true
  %14 = zext i1 %13 to i32
  ret i32 %14
}

; Function Attrs: inlinehint nounwind uwtable
define internal i32 @oidhash(ptr noundef %0) #2 {
  %2 = alloca ptr, align 8
  %3 = alloca i32, align 4
  store ptr %0, ptr %2, align 8, !tbaa !69
  call void @llvm.lifetime.start.p0(i64 4, ptr %3) #11
  %4 = load ptr, ptr %2, align 8, !tbaa !69
  %5 = getelementptr inbounds nuw %struct.object_id, ptr %4, i32 0, i32 0
  %6 = getelementptr inbounds [32 x i8], ptr %5, i64 0, i64 0
  call void @llvm.memcpy.p0.p0.i64(ptr align 4 %3, ptr align 4 %6, i64 4, i1 false)
  %7 = load i32, ptr %3, align 4, !tbaa !11
  call void @llvm.lifetime.end.p0(i64 4, ptr %3) #11
  ret i32 %7
}

; Function Attrs: inlinehint nounwind uwtable
define internal i32 @oideq_by_value(ptr noundef byval(%struct.object_id) align 8 %0, ptr noundef byval(%struct.object_id) align 8 %1) #2 {
  %3 = call i32 @oideq(ptr noundef %0, ptr noundef %1)
  ret i32 %3
}

; Function Attrs: inlinehint nounwind uwtable
define internal i32 @oidhash_by_value(ptr noundef byval(%struct.object_id) align 8 %0) #2 {
  %2 = call i32 @oidhash(ptr noundef %0)
  ret i32 %2
}

; Function Attrs: inlinehint nounwind uwtable
define internal i32 @kh_get_oid_map(ptr noundef %0, ptr noundef byval(%struct.object_id) align 8 %1) #2 {
  %3 = alloca i32, align 4
  %4 = alloca ptr, align 8
  %5 = alloca i32, align 4
  %6 = alloca i32, align 4
  %7 = alloca i32, align 4
  %8 = alloca i32, align 4
  %9 = alloca i32, align 4
  %10 = alloca %struct.object_id, align 8
  %11 = alloca i32, align 4
  store ptr %0, ptr %4, align 8, !tbaa !74
  %12 = load ptr, ptr %4, align 8, !tbaa !74
  %13 = getelementptr inbounds nuw %struct.kh_oid_map, ptr %12, i32 0, i32 0
  %14 = load i32, ptr %13, align 8, !tbaa !71
  %15 = icmp ne i32 %14, 0
  br i1 %15, label %16, label %109

16:                                               ; preds = %2
  call void @llvm.lifetime.start.p0(i64 4, ptr %5) #11
  call void @llvm.lifetime.start.p0(i64 4, ptr %6) #11
  call void @llvm.lifetime.start.p0(i64 4, ptr %7) #11
  call void @llvm.lifetime.start.p0(i64 4, ptr %8) #11
  call void @llvm.lifetime.start.p0(i64 4, ptr %9) #11
  store i32 0, ptr %9, align 4, !tbaa !11
  %17 = load ptr, ptr %4, align 8, !tbaa !74
  %18 = getelementptr inbounds nuw %struct.kh_oid_map, ptr %17, i32 0, i32 0
  %19 = load i32, ptr %18, align 8, !tbaa !71
  %20 = sub i32 %19, 1
  store i32 %20, ptr %8, align 4, !tbaa !11
  %21 = call i32 @oidhash_by_value(ptr noundef byval(%struct.object_id) align 8 %1)
  store i32 %21, ptr %5, align 4, !tbaa !11
  %22 = load i32, ptr %5, align 4, !tbaa !11
  %23 = load i32, ptr %8, align 4, !tbaa !11
  %24 = and i32 %22, %23
  store i32 %24, ptr %6, align 4, !tbaa !11
  %25 = load i32, ptr %6, align 4, !tbaa !11
  store i32 %25, ptr %7, align 4, !tbaa !11
  br label %26

26:                                               ; preds = %84, %16
  %27 = load ptr, ptr %4, align 8, !tbaa !74
  %28 = getelementptr inbounds nuw %struct.kh_oid_map, ptr %27, i32 0, i32 4
  %29 = load ptr, ptr %28, align 8, !tbaa !75
  %30 = load i32, ptr %6, align 4, !tbaa !11
  %31 = lshr i32 %30, 4
  %32 = zext i32 %31 to i64
  %33 = getelementptr inbounds nuw i32, ptr %29, i64 %32
  %34 = load i32, ptr %33, align 4, !tbaa !11
  %35 = load i32, ptr %6, align 4, !tbaa !11
  %36 = and i32 %35, 15
  %37 = shl i32 %36, 1
  %38 = lshr i32 %34, %37
  %39 = and i32 %38, 2
  %40 = icmp ne i32 %39, 0
  br i1 %40, label %68, label %41

41:                                               ; preds = %26
  %42 = load ptr, ptr %4, align 8, !tbaa !74
  %43 = getelementptr inbounds nuw %struct.kh_oid_map, ptr %42, i32 0, i32 4
  %44 = load ptr, ptr %43, align 8, !tbaa !75
  %45 = load i32, ptr %6, align 4, !tbaa !11
  %46 = lshr i32 %45, 4
  %47 = zext i32 %46 to i64
  %48 = getelementptr inbounds nuw i32, ptr %44, i64 %47
  %49 = load i32, ptr %48, align 4, !tbaa !11
  %50 = load i32, ptr %6, align 4, !tbaa !11
  %51 = and i32 %50, 15
  %52 = shl i32 %51, 1
  %53 = lshr i32 %49, %52
  %54 = and i32 %53, 1
  %55 = icmp ne i32 %54, 0
  br i1 %55, label %66, label %56

56:                                               ; preds = %41
  %57 = load ptr, ptr %4, align 8, !tbaa !74
  %58 = getelementptr inbounds nuw %struct.kh_oid_map, ptr %57, i32 0, i32 5
  %59 = load ptr, ptr %58, align 8, !tbaa !76
  %60 = load i32, ptr %6, align 4, !tbaa !11
  %61 = zext i32 %60 to i64
  %62 = getelementptr inbounds nuw %struct.object_id, ptr %59, i64 %61
  call void @llvm.lifetime.start.p0(i64 36, ptr %10) #11
  call void @llvm.memcpy.p0.p0.i64(ptr align 8 %10, ptr align 4 %62, i64 36, i1 false), !tbaa.struct !70
  %63 = call i32 @oideq_by_value(ptr noundef byval(%struct.object_id) align 8 %10, ptr noundef byval(%struct.object_id) align 8 %1)
  call void @llvm.lifetime.end.p0(i64 36, ptr %10) #11
  %64 = icmp ne i32 %63, 0
  %65 = xor i1 %64, true
  br label %66

66:                                               ; preds = %56, %41
  %67 = phi i1 [ true, %41 ], [ %65, %56 ]
  br label %68

68:                                               ; preds = %66, %26
  %69 = phi i1 [ false, %26 ], [ %67, %66 ]
  br i1 %69, label %70, label %85

70:                                               ; preds = %68
  %71 = load i32, ptr %6, align 4, !tbaa !11
  %72 = load i32, ptr %9, align 4, !tbaa !11
  %73 = add i32 %72, 1
  store i32 %73, ptr %9, align 4, !tbaa !11
  %74 = add i32 %71, %73
  %75 = load i32, ptr %8, align 4, !tbaa !11
  %76 = and i32 %74, %75
  store i32 %76, ptr %6, align 4, !tbaa !11
  %77 = load i32, ptr %6, align 4, !tbaa !11
  %78 = load i32, ptr %7, align 4, !tbaa !11
  %79 = icmp eq i32 %77, %78
  br i1 %79, label %80, label %84

80:                                               ; preds = %70
  %81 = load ptr, ptr %4, align 8, !tbaa !74
  %82 = getelementptr inbounds nuw %struct.kh_oid_map, ptr %81, i32 0, i32 0
  %83 = load i32, ptr %82, align 8, !tbaa !71
  store i32 %83, ptr %3, align 4
  store i32 1, ptr %11, align 4
  br label %108

84:                                               ; preds = %70
  br label %26, !llvm.loop !77

85:                                               ; preds = %68
  %86 = load ptr, ptr %4, align 8, !tbaa !74
  %87 = getelementptr inbounds nuw %struct.kh_oid_map, ptr %86, i32 0, i32 4
  %88 = load ptr, ptr %87, align 8, !tbaa !75
  %89 = load i32, ptr %6, align 4, !tbaa !11
  %90 = lshr i32 %89, 4
  %91 = zext i32 %90 to i64
  %92 = getelementptr inbounds nuw i32, ptr %88, i64 %91
  %93 = load i32, ptr %92, align 4, !tbaa !11
  %94 = load i32, ptr %6, align 4, !tbaa !11
  %95 = and i32 %94, 15
  %96 = shl i32 %95, 1
  %97 = lshr i32 %93, %96
  %98 = and i32 %97, 3
  %99 = icmp ne i32 %98, 0
  br i1 %99, label %100, label %104

100:                                              ; preds = %85
  %101 = load ptr, ptr %4, align 8, !tbaa !74
  %102 = getelementptr inbounds nuw %struct.kh_oid_map, ptr %101, i32 0, i32 0
  %103 = load i32, ptr %102, align 8, !tbaa !71
  br label %106

104:                                              ; preds = %85
  %105 = load i32, ptr %6, align 4, !tbaa !11
  br label %106

106:                                              ; preds = %104, %100
  %107 = phi i32 [ %103, %100 ], [ %105, %104 ]
  store i32 %107, ptr %3, align 4
  store i32 1, ptr %11, align 4
  br label %108

108:                                              ; preds = %106, %80
  call void @llvm.lifetime.end.p0(i64 4, ptr %9) #11
  call void @llvm.lifetime.end.p0(i64 4, ptr %8) #11
  call void @llvm.lifetime.end.p0(i64 4, ptr %7) #11
  call void @llvm.lifetime.end.p0(i64 4, ptr %6) #11
  call void @llvm.lifetime.end.p0(i64 4, ptr %5) #11
  br label %110

109:                                              ; preds = %2
  store i32 0, ptr %3, align 4
  br label %110

110:                                              ; preds = %109, %108
  %111 = load i32, ptr %3, align 4
  ret i32 %111
}

; Function Attrs: nounwind uwtable
define dso_local ptr @fsck_get_object_name(ptr noundef %0, ptr noundef %1) #0 {
  %3 = alloca ptr, align 8
  %4 = alloca ptr, align 8
  %5 = alloca ptr, align 8
  %6 = alloca i32, align 4
  %7 = alloca i32, align 4
  %8 = alloca %struct.object_id, align 8
  store ptr %0, ptr %4, align 8, !tbaa !24
  store ptr %1, ptr %5, align 8, !tbaa !69
  call void @llvm.lifetime.start.p0(i64 4, ptr %6) #11
  %9 = load ptr, ptr %4, align 8, !tbaa !24
  %10 = getelementptr inbounds nuw %struct.fsck_options, ptr %9, i32 0, i32 10
  %11 = load ptr, ptr %10, align 8, !tbaa !68
  %12 = icmp ne ptr %11, null
  br i1 %12, label %14, label %13

13:                                               ; preds = %2
  store ptr null, ptr %3, align 8
  store i32 1, ptr %7, align 4
  br label %38

14:                                               ; preds = %2
  %15 = load ptr, ptr %4, align 8, !tbaa !24
  %16 = getelementptr inbounds nuw %struct.fsck_options, ptr %15, i32 0, i32 10
  %17 = load ptr, ptr %16, align 8, !tbaa !68
  %18 = load ptr, ptr %5, align 8, !tbaa !69
  call void @llvm.lifetime.start.p0(i64 36, ptr %8) #11
  call void @llvm.memcpy.p0.p0.i64(ptr align 8 %8, ptr align 4 %18, i64 36, i1 false), !tbaa.struct !70
  %19 = call i32 @kh_get_oid_map(ptr noundef %17, ptr noundef byval(%struct.object_id) align 8 %8)
  call void @llvm.lifetime.end.p0(i64 36, ptr %8) #11
  store i32 %19, ptr %6, align 4, !tbaa !11
  %20 = load i32, ptr %6, align 4, !tbaa !11
  %21 = load ptr, ptr %4, align 8, !tbaa !24
  %22 = getelementptr inbounds nuw %struct.fsck_options, ptr %21, i32 0, i32 10
  %23 = load ptr, ptr %22, align 8, !tbaa !68
  %24 = getelementptr inbounds nuw %struct.kh_oid_map, ptr %23, i32 0, i32 0
  %25 = load i32, ptr %24, align 8, !tbaa !71
  %26 = icmp uge i32 %20, %25
  br i1 %26, label %27, label %28

27:                                               ; preds = %14
  store ptr null, ptr %3, align 8
  store i32 1, ptr %7, align 4
  br label %38

28:                                               ; preds = %14
  %29 = load ptr, ptr %4, align 8, !tbaa !24
  %30 = getelementptr inbounds nuw %struct.fsck_options, ptr %29, i32 0, i32 10
  %31 = load ptr, ptr %30, align 8, !tbaa !68
  %32 = getelementptr inbounds nuw %struct.kh_oid_map, ptr %31, i32 0, i32 6
  %33 = load ptr, ptr %32, align 8, !tbaa !73
  %34 = load i32, ptr %6, align 4, !tbaa !11
  %35 = zext i32 %34 to i64
  %36 = getelementptr inbounds nuw ptr, ptr %33, i64 %35
  %37 = load ptr, ptr %36, align 8, !tbaa !33
  store ptr %37, ptr %3, align 8
  store i32 1, ptr %7, align 4
  br label %38

38:                                               ; preds = %28, %27, %13
  call void @llvm.lifetime.end.p0(i64 4, ptr %6) #11
  %39 = load ptr, ptr %3, align 8
  ret ptr %39
}