; Function Attrs: nofree nounwind memory(readwrite, inaccessiblemem: none) uwtable
define dso_local ptr @fsck_get_object_name(ptr noundef readonly captures(none) %0, ptr noundef readonly captures(none) %1) local_unnamed_addr #7 {
  %3 = alloca %struct.object_id, align 8
  %4 = alloca %struct.object_id, align 8
  %5 = getelementptr inbounds nuw i8, ptr %0, i64 232
  %6 = load ptr, ptr %5, align 8, !tbaa !57
  %.not = icmp eq ptr %6, null
  br i1 %.not, label %42, label %7

7:                                                ; preds = %2
  call void @llvm.lifetime.start.p0(i64 36, ptr nonnull %4)
  call void @llvm.memcpy.p0.p0.i64(ptr noundef nonnull align 8 dereferenceable(36) %4, ptr noundef nonnull align 4 dereferenceable(36) %1, i64 36, i1 false)
  %8 = load i32, ptr %6, align 8, !tbaa !58
  %.not.i = icmp eq i32 %8, 0
  br i1 %.not.i, label %kh_get_oid_map.exit, label %9

9:                                                ; preds = %7
  %10 = add i32 %8, -1
  %.val.i = load i32, ptr %4, align 8
  %11 = and i32 %.val.i, %10
  %12 = getelementptr inbounds nuw i8, ptr %6, i64 16
  %13 = load ptr, ptr %12, align 8, !tbaa !60
  %14 = getelementptr inbounds nuw i8, ptr %6, i64 24
  br label %15

15:                                               ; preds = %.critedge2.i, %9
  %.027.i = phi i32 [ %11, %9 ], [ %32, %.critedge2.i ]
  %.0.i = phi i32 [ 0, %9 ], [ %30, %.critedge2.i ]
  %16 = lshr i32 %.027.i, 4
  %17 = zext nneg i32 %16 to i64
  %18 = getelementptr inbounds nuw i32, ptr %13, i64 %17
  %19 = load i32, ptr %18, align 4, !tbaa !29
  %20 = shl i32 %.027.i, 1
  %21 = and i32 %20, 30
  %22 = lshr i32 %19, %21
  %23 = and i32 %22, 2
  %.not30.i = icmp eq i32 %23, 0
  br i1 %.not30.i, label %24, label %.critedge.i

24:                                               ; preds = %15
  %25 = and i32 %22, 1
  %.not31.i = icmp eq i32 %25, 0
  br i1 %.not31.i, label %26, label %.critedge2.i

26:                                               ; preds = %24
  %27 = load ptr, ptr %14, align 8, !tbaa !61
  %28 = zext i32 %.027.i to i64
  %29 = getelementptr inbounds nuw %struct.object_id, ptr %27, i64 %28
  call void @llvm.lifetime.start.p0(i64 36, ptr nonnull %3) #16
  call void @llvm.memcpy.p0.p0.i64(ptr noundef nonnull align 8 dereferenceable(36) %3, ptr noundef nonnull align 4 dereferenceable(36) %29, i64 36, i1 false), !tbaa.struct !62
  %bcmp.i.i.i = call i32 @bcmp(ptr noundef nonnull readonly align 8 dereferenceable(32) %3, ptr noundef nonnull readonly align 8 dereferenceable(32) %4, i64 32)
  %.not.i.i.not.i = icmp eq i32 %bcmp.i.i.i, 0
  call void @llvm.lifetime.end.p0(i64 36, ptr nonnull %3) #16
  br i1 %.not.i.i.not.i, label %.critedge.i, label %.critedge2.i

.critedge2.i:                                     ; preds = %26, %24
  %30 = add i32 %.0.i, 1
  %31 = add i32 %30, %.027.i
  %32 = and i32 %31, %10
  %33 = icmp eq i32 %32, %11
  br i1 %33, label %kh_get_oid_map.exit.thread, label %15, !llvm.loop !63

kh_get_oid_map.exit.thread:                       ; preds = %.critedge2.i
  call void @llvm.lifetime.end.p0(i64 36, ptr nonnull %4)
  br label %42

.critedge.i:                                      ; preds = %26, %15
  %34 = shl nuw i32 3, %21
  %35 = and i32 %34, %19
  %.not33.i = icmp eq i32 %35, 0
  %spec.select.i = select i1 %.not33.i, i32 %.027.i, i32 %8
  br label %kh_get_oid_map.exit

kh_get_oid_map.exit:                              ; preds = %7, %.critedge.i
  %.1.i = phi i32 [ 0, %7 ], [ %spec.select.i, %.critedge.i ]
  call void @llvm.lifetime.end.p0(i64 36, ptr nonnull %4)
  %.not9 = icmp ult i32 %.1.i, %8
  br i1 %.not9, label %36, label %42

36:                                               ; preds = %kh_get_oid_map.exit
  %37 = getelementptr inbounds nuw i8, ptr %6, i64 32
  %38 = load ptr, ptr %37, align 8, !tbaa !64
  %39 = zext i32 %.1.i to i64
  %40 = getelementptr inbounds nuw ptr, ptr %38, i64 %39
  %41 = load ptr, ptr %40, align 8, !tbaa !65
  br label %42

42:                                               ; preds = %kh_get_oid_map.exit.thread, %kh_get_oid_map.exit, %2, %36
  %.0 = phi ptr [ %41, %36 ], [ null, %2 ], [ null, %kh_get_oid_map.exit ], [ null, %kh_get_oid_map.exit.thread ]
  ret ptr %.0
}